; ModuleID = 'source-C-CXX/30/43.c'
source_filename = "source-C-CXX/30/43.c"
target datalayout = "e-m:e-p270:32:32-p271:32:32-p272:64:64-i64:64-f80:128-n8:16:32:64-S128"
target triple = "x86_64-pc-linux-gnu"

%struct.stu = type { [15 x i8], [20 x i8], i8, i32, [20 x i8], [15 x i8], %struct.stu* }

@head = dso_local local_unnamed_addr global %struct.stu* null, align 8
@.str = private unnamed_addr constant [3 x i8] c"%s\00", align 1
@p = dso_local local_unnamed_addr global %struct.stu* null, align 8
@.str.1 = private unnamed_addr constant [15 x i8] c"%s %c %d %s %s\00", align 1
@q = dso_local local_unnamed_addr global %struct.stu* null, align 8
@newhead = dso_local local_unnamed_addr global %struct.stu* null, align 8
@ne = dso_local local_unnamed_addr global %struct.stu* null, align 8
@.str.2 = private unnamed_addr constant [19 x i8] c"%s %s %c %d %s %s\0A\00", align 1

; Function Attrs: nofree nounwind sspstrong uwtable
define dso_local %struct.stu* @creat() local_unnamed_addr #0 {
  %1 = alloca [15 x i8], align 1
  %2 = getelementptr inbounds [15 x i8], [15 x i8]* %1, i64 0, i64 0
  call void @llvm.lifetime.start.p0i8(i64 15, i8* nonnull %2) #7
  store %struct.stu* null, %struct.stu** @head, align 8, !tbaa !5
  %3 = call i32 (i8*, ...) @__isoc99_scanf(i8* getelementptr inbounds ([3 x i8], [3 x i8]* @.str, i64 0, i64 0), [15 x i8]* nonnull %1)
  %4 = call i64 @strlen(i8* noundef nonnull %2) #8
  %5 = icmp eq i64 %4, 3
  br i1 %5, label %26, label %6

6:                                                ; preds = %0, %6
  %7 = call noalias align 16 dereferenceable_or_null(100) i8* @malloc(i64 100) #7
  %8 = bitcast i8* %7 to %struct.stu*
  store i8* %7, i8** bitcast (%struct.stu** @p to i8**), align 8, !tbaa !5
  %9 = getelementptr inbounds %struct.stu, %struct.stu* %8, i64 0, i32 0, i64 0
  %10 = call i8* @strcpy(i8* noundef nonnull dereferenceable(1) %9, i8* noundef nonnull %2) #7
  %11 = getelementptr inbounds %struct.stu, %struct.stu* %8, i64 0, i32 1, i64 0
  %12 = getelementptr inbounds %struct.stu, %struct.stu* %8, i64 0, i32 2
  %13 = getelementptr inbounds %struct.stu, %struct.stu* %8, i64 0, i32 3
  %14 = getelementptr inbounds %struct.stu, %struct.stu* %8, i64 0, i32 4, i64 0
  %15 = getelementptr inbounds %struct.stu, %struct.stu* %8, i64 0, i32 5, i64 0
  %16 = call i32 (i8*, ...) @__isoc99_scanf(i8* getelementptr inbounds ([15 x i8], [15 x i8]* @.str.1, i64 0, i64 0), i8* nonnull %11, i8* nonnull %12, i32* nonnull %13, i8* nonnull %14, i8* nonnull %15)
  %17 = load %struct.stu*, %struct.stu** @head, align 8, !tbaa !5
  %18 = icmp eq %struct.stu* %17, null
  %19 = load %struct.stu*, %struct.stu** @p, align 8, !tbaa !5
  %20 = load %struct.stu*, %struct.stu** @q, align 8
  %21 = getelementptr inbounds %struct.stu, %struct.stu* %20, i64 0, i32 6
  %22 = select i1 %18, %struct.stu** @head, %struct.stu** %21
  store %struct.stu* %19, %struct.stu** %22, align 8, !tbaa !5
  store %struct.stu* %19, %struct.stu** @q, align 8, !tbaa !5
  %23 = call i32 (i8*, ...) @__isoc99_scanf(i8* getelementptr inbounds ([3 x i8], [3 x i8]* @.str, i64 0, i64 0), i8* nonnull %2)
  %24 = call i64 @strlen(i8* noundef nonnull %2) #8
  %25 = icmp eq i64 %24, 3
  br i1 %25, label %26, label %6, !llvm.loop !9

26:                                               ; preds = %6, %0
  %27 = load %struct.stu*, %struct.stu** @q, align 8, !tbaa !5
  %28 = getelementptr inbounds %struct.stu, %struct.stu* %27, i64 0, i32 6
  store %struct.stu* null, %struct.stu** %28, align 8, !tbaa !11
  %29 = load %struct.stu*, %struct.stu** @head, align 8, !tbaa !5
  call void @llvm.lifetime.end.p0i8(i64 15, i8* nonnull %2) #7
  ret %struct.stu* %29
}

; Function Attrs: argmemonly mustprogress nofree nosync nounwind willreturn
declare void @llvm.lifetime.start.p0i8(i64 immarg, i8* nocapture) #1

; Function Attrs: nofree nounwind
declare noundef i32 @__isoc99_scanf(i8* nocapture noundef readonly, ...) local_unnamed_addr #2

; Function Attrs: argmemonly mustprogress nofree nounwind readonly willreturn
declare i64 @strlen(i8* nocapture) local_unnamed_addr #3

; Function Attrs: inaccessiblememonly mustprogress nofree nounwind willreturn
declare noalias noundef align 16 i8* @malloc(i64 noundef) local_unnamed_addr #4

; Function Attrs: argmemonly mustprogress nofree nounwind willreturn
declare i8* @strcpy(i8* noalias returned writeonly, i8* noalias nocapture readonly) local_unnamed_addr #5

; Function Attrs: argmemonly mustprogress nofree nosync nounwind willreturn
declare void @llvm.lifetime.end.p0i8(i64 immarg, i8* nocapture) #1

; Function Attrs: nofree norecurse nosync nounwind sspstrong uwtable
define dso_local %struct.stu* @change(%struct.stu* %0) local_unnamed_addr #6 {
  store %struct.stu* null, %struct.stu** @newhead, align 8, !tbaa !5
  %2 = getelementptr inbounds %struct.stu, %struct.stu* %0, i64 0, i32 6
  %3 = load %struct.stu*, %struct.stu** @ne, align 8, !tbaa !5
  br label %4

4:                                                ; preds = %17, %1
  %5 = phi %struct.stu* [ %18, %17 ], [ null, %1 ]
  %6 = phi %struct.stu* [ %8, %17 ], [ %3, %1 ]
  br label %7

7:                                                ; preds = %7, %4
  %8 = phi %struct.stu* [ null, %4 ], [ %9, %7 ]
  %9 = phi %struct.stu* [ %0, %4 ], [ %11, %7 ]
  %10 = getelementptr inbounds %struct.stu, %struct.stu* %9, i64 0, i32 6
  %11 = load %struct.stu*, %struct.stu** %10, align 8, !tbaa !11
  %12 = icmp eq %struct.stu* %11, null
  br i1 %12, label %13, label %7, !llvm.loop !14

13:                                               ; preds = %7
  %14 = icmp eq %struct.stu* %5, null
  br i1 %14, label %15, label %17

15:                                               ; preds = %13
  %16 = getelementptr inbounds %struct.stu, %struct.stu* %9, i64 0, i32 6
  store %struct.stu* %9, %struct.stu** @newhead, align 8, !tbaa !5
  store %struct.stu* %8, %struct.stu** %16, align 8, !tbaa !11
  br label %17

17:                                               ; preds = %15, %13
  %18 = phi %struct.stu* [ %9, %15 ], [ %5, %13 ]
  %19 = phi %struct.stu* [ %8, %15 ], [ %6, %13 ]
  %20 = getelementptr inbounds %struct.stu, %struct.stu* %19, i64 0, i32 6
  store %struct.stu* %8, %struct.stu** %20, align 8, !tbaa !11
  %21 = getelementptr inbounds %struct.stu, %struct.stu* %8, i64 0, i32 6
  store %struct.stu* null, %struct.stu** %21, align 8, !tbaa !11
  %22 = load %struct.stu*, %struct.stu** %2, align 8, !tbaa !11
  %23 = icmp eq %struct.stu* %22, null
  br i1 %23, label %24, label %4, !llvm.loop !15

24:                                               ; preds = %17
  store %struct.stu* %8, %struct.stu** @q, align 8, !tbaa !5
  store %struct.stu* %9, %struct.stu** @p, align 8, !tbaa !5
  store %struct.stu* %8, %struct.stu** @ne, align 8, !tbaa !5
  ret %struct.stu* %18
}

; Function Attrs: nofree nounwind sspstrong uwtable
define dso_local void @output(%struct.stu* %0) local_unnamed_addr #0 {
  store %struct.stu* %0, %struct.stu** @p, align 8, !tbaa !5
  %2 = icmp eq %struct.stu* %0, null
  br i1 %2, label %19, label %3

3:                                                ; preds = %1, %3
  %4 = phi %struct.stu* [ %17, %3 ], [ %0, %1 ]
  %5 = getelementptr inbounds %struct.stu, %struct.stu* %4, i64 0, i32 0, i64 0
  %6 = getelementptr inbounds %struct.stu, %struct.stu* %4, i64 0, i32 1, i64 0
  %7 = getelementptr inbounds %struct.stu, %struct.stu* %4, i64 0, i32 2
  %8 = load i8, i8* %7, align 1, !tbaa !16
  %9 = sext i8 %8 to i32
  %10 = getelementptr inbounds %struct.stu, %struct.stu* %4, i64 0, i32 3
  %11 = load i32, i32* %10, align 4, !tbaa !17
  %12 = getelementptr inbounds %struct.stu, %struct.stu* %4, i64 0, i32 4, i64 0
  %13 = getelementptr inbounds %struct.stu, %struct.stu* %4, i64 0, i32 5, i64 0
  %14 = tail call i32 (i8*, ...) @printf(i8* nonnull dereferenceable(1) getelementptr inbounds ([19 x i8], [19 x i8]* @.str.2, i64 0, i64 0), i8* nonnull %5, i8* nonnull %6, i32 %9, i32 %11, i8* nonnull %12, i8* nonnull %13)
  %15 = load %struct.stu*, %struct.stu** @p, align 8, !tbaa !5
  %16 = getelementptr inbounds %struct.stu, %struct.stu* %15, i64 0, i32 6
  %17 = load %struct.stu*, %struct.stu** %16, align 8, !tbaa !11
  store %struct.stu* %17, %struct.stu** @p, align 8, !tbaa !5
  %18 = icmp eq %struct.stu* %17, null
  br i1 %18, label %19, label %3, !llvm.loop !18

19:                                               ; preds = %3, %1
  ret void
}

; Function Attrs: nofree nounwind
declare noundef i32 @printf(i8* nocapture noundef readonly, ...) local_unnamed_addr #2

; Function Attrs: nofree nounwind sspstrong uwtable
define dso_local i32 @main() local_unnamed_addr #0 {
  %1 = tail call %struct.stu* @creat()
  store %struct.stu* %1, %struct.stu** @head, align 8, !tbaa !5
  %2 = getelementptr inbounds %struct.stu, %struct.stu* %1, i64 0, i32 6
  %3 = load %struct.stu*, %struct.stu** @ne, align 8, !tbaa !5
  br label %4

4:                                                ; preds = %17, %0
  %5 = phi %struct.stu* [ %18, %17 ], [ null, %0 ]
  %6 = phi %struct.stu* [ %8, %17 ], [ %3, %0 ]
  br label %7

7:                                                ; preds = %7, %4
  %8 = phi %struct.stu* [ null, %4 ], [ %9, %7 ]
  %9 = phi %struct.stu* [ %1, %4 ], [ %11, %7 ]
  %10 = getelementptr inbounds %struct.stu, %struct.stu* %9, i64 0, i32 6
  %11 = load %struct.stu*, %struct.stu** %10, align 8, !tbaa !11
  %12 = icmp eq %struct.stu* %11, null
  br i1 %12, label %13, label %7, !llvm.loop !14

13:                                               ; preds = %7
  %14 = icmp eq %struct.stu* %5, null
  br i1 %14, label %15, label %17

15:                                               ; preds = %13
  %16 = getelementptr inbounds %struct.stu, %struct.stu* %9, i64 0, i32 6
  store %struct.stu* %8, %struct.stu** %16, align 8, !tbaa !11
  br label %17

17:                                               ; preds = %15, %13
  %18 = phi %struct.stu* [ %9, %15 ], [ %5, %13 ]
  %19 = phi %struct.stu* [ %8, %15 ], [ %6, %13 ]
  %20 = getelementptr inbounds %struct.stu, %struct.stu* %19, i64 0, i32 6
  store %struct.stu* %8, %struct.stu** %20, align 8, !tbaa !11
  %21 = getelementptr inbounds %struct.stu, %struct.stu* %8, i64 0, i32 6
  store %struct.stu* null, %struct.stu** %21, align 8, !tbaa !11
  %22 = load %struct.stu*, %struct.stu** %2, align 8, !tbaa !11
  %23 = icmp eq %struct.stu* %22, null
  br i1 %23, label %24, label %4, !llvm.loop !15

24:                                               ; preds = %17
  store %struct.stu* %8, %struct.stu** @q, align 8, !tbaa !5
  store %struct.stu* %8, %struct.stu** @ne, align 8, !tbaa !5
  store %struct.stu* %18, %struct.stu** @newhead, align 8, !tbaa !5
  store %struct.stu* %18, %struct.stu** @p, align 8, !tbaa !5
  br label %25

25:                                               ; preds = %24, %25
  %26 = phi %struct.stu* [ %39, %25 ], [ %18, %24 ]
  %27 = getelementptr inbounds %struct.stu, %struct.stu* %26, i64 0, i32 0, i64 0
  %28 = getelementptr inbounds %struct.stu, %struct.stu* %26, i64 0, i32 1, i64 0
  %29 = getelementptr inbounds %struct.stu, %struct.stu* %26, i64 0, i32 2
  %30 = load i8, i8* %29, align 1, !tbaa !16
  %31 = sext i8 %30 to i32
  %32 = getelementptr inbounds %struct.stu, %struct.stu* %26, i64 0, i32 3
  %33 = load i32, i32* %32, align 4, !tbaa !17
  %34 = getelementptr inbounds %struct.stu, %struct.stu* %26, i64 0, i32 4, i64 0
  %35 = getelementptr inbounds %struct.stu, %struct.stu* %26, i64 0, i32 5, i64 0
  %36 = tail call i32 (i8*, ...) @printf(i8* nonnull dereferenceable(1) getelementptr inbounds ([19 x i8], [19 x i8]* @.str.2, i64 0, i64 0), i8* nonnull %27, i8* nonnull %28, i32 %31, i32 %33, i8* nonnull %34, i8* nonnull %35) #7
  %37 = load %struct.stu*, %struct.stu** @p, align 8, !tbaa !5
  %38 = getelementptr inbounds %struct.stu, %struct.stu* %37, i64 0, i32 6
  %39 = load %struct.stu*, %struct.stu** %38, align 8, !tbaa !11
  store %struct.stu* %39, %struct.stu** @p, align 8, !tbaa !5
  %40 = icmp eq %struct.stu* %39, null
  br i1 %40, label %41, label %25, !llvm.loop !18

41:                                               ; preds = %25
  ret i32 0
}


!llvm.module.flags = !{!0, !1, !2, !3}
!llvm.ident = !{!4}

!0 = !{i32 1, !"wchar_size", i32 4}
!1 = !{i32 7, !"PIC Level", i32 2}
!2 = !{i32 7, !"PIE Level", i32 2}
!3 = !{i32 7, !"uwtable", i32 1}
!4 = !{!"clang version 13.0.0"}
!5 = !{!6, !6, i64 0}
!6 = !{!"any pointer", !7, i64 0}
!7 = !{!"omnipotent char", !8, i64 0}
!8 = !{!"Simple C/C++ TBAA"}
!9 = distinct !{!9, !10}
!10 = !{!"llvm.loop.mustprogress"}
!11 = !{!12, !6, i64 80}
!12 = !{!"stu", !7, i64 0, !7, i64 15, !7, i64 35, !13, i64 36, !7, i64 40, !7, i64 60, !6, i64 80}
!13 = !{!"int", !7, i64 0}
!14 = distinct !{!14, !10}
!15 = distinct !{!15, !10}
!16 = !{!12, !7, i64 35}
!17 = !{!12, !13, i64 36}
!18 = distinct !{!18, !10}
